target datalayout = "e-m:e-p270:32:32-p271:32:32-p272:64:64-i64:64-i128:128-f80:128-n8:16:32:64-S128"
target triple = "x86_64-pc-linux-gnu"

%struct.SDL_BlitInfo = type { ptr, ptr, i32, i32, i32, i32, ptr, ptr, i32, i32, i32, i32, ptr, ptr, ptr, ptr, ptr, ptr, i32, i32, i8, i8, i8, i8 }

; Function Attrs: nounwind uwtable
define internal void @SDL_Blit_XBGR8888_ABGR8888_Scale(ptr noundef %0) #0 {
  %2 = alloca ptr, align 8
  %3 = alloca i32, align 4
  %4 = alloca i32, align 4
  %5 = alloca i64, align 8
  %6 = alloca i64, align 8
  %7 = alloca i64, align 8
  %8 = alloca i64, align 8
  %9 = alloca i64, align 8
  %10 = alloca i64, align 8
  %11 = alloca ptr, align 8
  %12 = alloca ptr, align 8
  %13 = alloca i32, align 4
  store ptr %0, ptr %2, align 8
  call void @llvm.lifetime.start.p0(i64 4, ptr %3) #2
  call void @llvm.lifetime.start.p0(i64 4, ptr %4) #2
  store i32 255, ptr %4, align 4
  call void @llvm.lifetime.start.p0(i64 8, ptr %5) #2
  call void @llvm.lifetime.start.p0(i64 8, ptr %6) #2
  call void @llvm.lifetime.start.p0(i64 8, ptr %7) #2
  call void @llvm.lifetime.start.p0(i64 8, ptr %8) #2
  call void @llvm.lifetime.start.p0(i64 8, ptr %9) #2
  call void @llvm.lifetime.start.p0(i64 8, ptr %10) #2
  %14 = load ptr, ptr %2, align 8
  %15 = getelementptr inbounds nuw %struct.SDL_BlitInfo, ptr %14, i32 0, i32 3
  %16 = load i32, ptr %15, align 4
  %17 = sext i32 %16 to i64
  %18 = shl i64 %17, 16
  %19 = load ptr, ptr %2, align 8
  %20 = getelementptr inbounds nuw %struct.SDL_BlitInfo, ptr %19, i32 0, i32 9
  %21 = load i32, ptr %20, align 4
  %22 = sext i32 %21 to i64
  %23 = udiv i64 %18, %22
  store i64 %23, ptr %9, align 8
  %24 = load ptr, ptr %2, align 8
  %25 = getelementptr inbounds nuw %struct.SDL_BlitInfo, ptr %24, i32 0, i32 2
  %26 = load i32, ptr %25, align 8
  %27 = sext i32 %26 to i64
  %28 = shl i64 %27, 16
  %29 = load ptr, ptr %2, align 8
  %30 = getelementptr inbounds nuw %struct.SDL_BlitInfo, ptr %29, i32 0, i32 8
  %31 = load i32, ptr %30, align 8
  %32 = sext i32 %31 to i64
  %33 = udiv i64 %28, %32
  store i64 %33, ptr %10, align 8
  %34 = load i64, ptr %9, align 8
  %35 = udiv i64 %34, 2
  store i64 %35, ptr %7, align 8
  br label %36

36:                                               ; preds = %84, %1
  %37 = load ptr, ptr %2, align 8
  %38 = getelementptr inbounds nuw %struct.SDL_BlitInfo, ptr %37, i32 0, i32 9
  %39 = load i32, ptr %38, align 4
  %40 = add nsw i32 %39, -1
  store i32 %40, ptr %38, align 4
  %41 = icmp ne i32 %39, 0
  br i1 %41, label %42, label %96

42:                                               ; preds = %36
  call void @llvm.lifetime.start.p0(i64 8, ptr %11) #2
  store ptr null, ptr %11, align 8
  call void @llvm.lifetime.start.p0(i64 8, ptr %12) #2
  %43 = load ptr, ptr %2, align 8
  %44 = getelementptr inbounds nuw %struct.SDL_BlitInfo, ptr %43, i32 0, i32 7
  %45 = load ptr, ptr %44, align 8
  store ptr %45, ptr %12, align 8
  call void @llvm.lifetime.start.p0(i64 4, ptr %13) #2
  %46 = load ptr, ptr %2, align 8
  %47 = getelementptr inbounds nuw %struct.SDL_BlitInfo, ptr %46, i32 0, i32 8
  %48 = load i32, ptr %47, align 8
  store i32 %48, ptr %13, align 4
  %49 = load i64, ptr %10, align 8
  %50 = udiv i64 %49, 2
  store i64 %50, ptr %8, align 8
  %51 = load i64, ptr %7, align 8
  %52 = lshr i64 %51, 16
  store i64 %52, ptr %5, align 8
  br label %53

53:                                               ; preds = %57, %42
  %54 = load i32, ptr %13, align 4
  %55 = add nsw i32 %54, -1
  store i32 %55, ptr %13, align 4
  %56 = icmp ne i32 %54, 0
  br i1 %56, label %57, label %84

57:                                               ; preds = %53
  %58 = load i64, ptr %8, align 8
  %59 = lshr i64 %58, 16
  store i64 %59, ptr %6, align 8
  %60 = load ptr, ptr %2, align 8
  %61 = getelementptr inbounds nuw %struct.SDL_BlitInfo, ptr %60, i32 0, i32 1
  %62 = load ptr, ptr %61, align 8
  %63 = load i64, ptr %5, align 8
  %64 = load ptr, ptr %2, align 8
  %65 = getelementptr inbounds nuw %struct.SDL_BlitInfo, ptr %64, i32 0, i32 4
  %66 = load i32, ptr %65, align 8
  %67 = sext i32 %66 to i64
  %68 = mul i64 %63, %67
  %69 = getelementptr inbounds nuw i8, ptr %62, i64 %68
  %70 = load i64, ptr %6, align 8
  %71 = mul i64 %70, 4
  %72 = getelementptr inbounds nuw i8, ptr %69, i64 %71
  store ptr %72, ptr %11, align 8
  %73 = load ptr, ptr %11, align 8
  %74 = load i32, ptr %73, align 4
  store i32 %74, ptr %3, align 4
  %75 = load i32, ptr %3, align 4
  %76 = or i32 %75, -16777216
  store i32 %76, ptr %3, align 4
  %77 = load i32, ptr %3, align 4
  %78 = load ptr, ptr %12, align 8
  store i32 %77, ptr %78, align 4
  %79 = load i64, ptr %10, align 8
  %80 = load i64, ptr %8, align 8
  %81 = add i64 %80, %79
  store i64 %81, ptr %8, align 8
  %82 = load ptr, ptr %12, align 8
  %83 = getelementptr inbounds nuw i32, ptr %82, i32 1
  store ptr %83, ptr %12, align 8
  br label %53, !llvm.loop !102

84:                                               ; preds = %53
  %85 = load i64, ptr %9, align 8
  %86 = load i64, ptr %7, align 8
  %87 = add i64 %86, %85
  store i64 %87, ptr %7, align 8
  %88 = load ptr, ptr %2, align 8
  %89 = getelementptr inbounds nuw %struct.SDL_BlitInfo, ptr %88, i32 0, i32 10
  %90 = load i32, ptr %89, align 8
  %91 = load ptr, ptr %2, align 8
  %92 = getelementptr inbounds nuw %struct.SDL_BlitInfo, ptr %91, i32 0, i32 7
  %93 = load ptr, ptr %92, align 8
  %94 = sext i32 %90 to i64
  %95 = getelementptr inbounds i8, ptr %93, i64 %94
  store ptr %95, ptr %92, align 8
  call void @llvm.lifetime.end.p0(i64 4, ptr %13) #2
  call void @llvm.lifetime.end.p0(i64 8, ptr %12) #2
  call void @llvm.lifetime.end.p0(i64 8, ptr %11) #2
  br label %36, !llvm.loop !103

96:                                               ; preds = %36
  call void @llvm.lifetime.end.p0(i64 8, ptr %10) #2
  call void @llvm.lifetime.end.p0(i64 8, ptr %9) #2
  call void @llvm.lifetime.end.p0(i64 8, ptr %8) #2
  call void @llvm.lifetime.end.p0(i64 8, ptr %7) #2
  call void @llvm.lifetime.end.p0(i64 8, ptr %6) #2
  call void @llvm.lifetime.end.p0(i64 8, ptr %5) #2
  call void @llvm.lifetime.end.p0(i64 4, ptr %4) #2
  call void @llvm.lifetime.end.p0(i64 4, ptr %3) #2
  ret void
}